; ModuleID = '43/1421.c'
source_filename = "43/1421.c"
target datalayout = "e-m:e-p270:32:32-p271:32:32-p272:64:64-i64:64-f80:128-n8:16:32:64-S128"
target triple = "x86_64-pc-linux-gnu"

@.str = private unnamed_addr constant [3 x i8] c"%d\00", align 1
@.str.1 = private unnamed_addr constant [7 x i8] c"%d %d\0A\00", align 1

; Function Attrs: noinline nounwind uwtable
define dso_local i32 @sushu(i32 %0) #0 {
  %2 = alloca i32, align 4
  %3 = alloca i32, align 4
  %4 = alloca i32, align 4
  store i32 %0, i32* %3, align 4
  store i32 2, i32* %4, align 4
  br label %5

5:                                                ; preds = %16, %1
  %6 = load i32, i32* %4, align 4
  %7 = load i32, i32* %3, align 4
  %8 = icmp sle i32 %6, %7
  br i1 %8, label %9, label %19

9:                                                ; preds = %5
  %10 = load i32, i32* %3, align 4
  %11 = load i32, i32* %4, align 4
  %12 = srem i32 %10, %11
  %13 = icmp eq i32 %12, 0
  br i1 %13, label %14, label %15

14:                                               ; preds = %9
  br label %19

15:                                               ; preds = %9
  br label %16

16:                                               ; preds = %15
  %17 = load i32, i32* %4, align 4
  %18 = add nsw i32 %17, 1
  store i32 %18, i32* %4, align 4
  br label %5

19:                                               ; preds = %14, %5
  %20 = load i32, i32* %4, align 4
  %21 = load i32, i32* %3, align 4
  %22 = icmp slt i32 %20, %21
  br i1 %22, label %23, label %24

23:                                               ; preds = %19
  store i32 0, i32* %2, align 4
  br label %25

24:                                               ; preds = %19
  store i32 1, i32* %2, align 4
  br label %25

25:                                               ; preds = %24, %23
  %26 = load i32, i32* %2, align 4
  ret i32 %26
}

; Function Attrs: noinline nounwind uwtable
define dso_local i32 @main() #0 {
  %1 = alloca i32, align 4
  %2 = alloca i32, align 4
  %3 = alloca i32, align 4
  %4 = alloca i32, align 4
  %5 = alloca i32, align 4
  %6 = alloca i32, align 4
  store i32 0, i32* %1, align 4
  %7 = call i32 (i8*, ...) @__isoc99_scanf(i8* getelementptr inbounds ([3 x i8], [3 x i8]* @.str, i64 0, i64 0), i32* %2)
  store i32 3, i32* %3, align 4
  %8 = load i32, i32* %2, align 4
  %9 = load i32, i32* %3, align 4
  %10 = sub nsw i32 %8, %9
  store i32 %10, i32* %4, align 4
  br label %11

11:                                               ; preds = %38, %0
  %12 = load i32, i32* %3, align 4
  %13 = load i32, i32* %4, align 4
  %14 = icmp sle i32 %12, %13
  br i1 %14, label %15, label %39

15:                                               ; preds = %11
  %16 = load i32, i32* %3, align 4
  %17 = call i32 @sushu(i32 %16)
  store i32 %17, i32* %5, align 4
  %18 = load i32, i32* %4, align 4
  %19 = call i32 @sushu(i32 %18)
  store i32 %19, i32* %6, align 4
  %20 = load i32, i32* %5, align 4
  %21 = icmp eq i32 %20, 1
  br i1 %21, label %22, label %33

22:                                               ; preds = %15
  %23 = load i32, i32* %6, align 4
  %24 = icmp eq i32 %23, 1
  br i1 %24, label %25, label %33

25:                                               ; preds = %22
  %26 = load i32, i32* %3, align 4
  %27 = load i32, i32* %4, align 4
  %28 = call i32 (i8*, ...) @printf(i8* getelementptr inbounds ([7 x i8], [7 x i8]* @.str.1, i64 0, i64 0), i32 %26, i32 %27)
  %29 = load i32, i32* %3, align 4
  %30 = add nsw i32 %29, 2
  store i32 %30, i32* %3, align 4
  %31 = load i32, i32* %4, align 4
  %32 = sub nsw i32 %31, 2
  store i32 %32, i32* %4, align 4
  br label %38

33:                                               ; preds = %22, %15
  %34 = load i32, i32* %3, align 4
  %35 = add nsw i32 %34, 2
  store i32 %35, i32* %3, align 4
  %36 = load i32, i32* %4, align 4
  %37 = sub nsw i32 %36, 2
  store i32 %37, i32* %4, align 4
  br label %38

38:                                               ; preds = %33, %25
  br label %11

39:                                               ; preds = %11
  %40 = load i32, i32* %1, align 4
  ret i32 %40
}

declare dso_local i32 @__isoc99_scanf(i8*, ...) #1

declare dso_local i32 @printf(i8*, ...) #1


!llvm.module.flags = !{!0}
!llvm.ident = !{!1}

!0 = !{i32 1, !"wchar_size", i32 4}
!1 = !{!"clang version 10.0.0-4ubuntu1 "}
