; ModuleID = 'source-C-CXX/42/1421.c'
source_filename = "source-C-CXX/42/1421.c"
target datalayout = "e-m:e-p270:32:32-p271:32:32-p272:64:64-i64:64-f80:128-n8:16:32:64-S128"
target triple = "x86_64-pc-linux-gnu"

@.str = private unnamed_addr constant [3 x i8] c"%d\00", align 1
@.str.1 = private unnamed_addr constant [7 x i8] c"%d %d\0A\00", align 1

; Function Attrs: nofree norecurse nosync nounwind readnone sspstrong uwtable
define dso_local i32 @sushu(i32 %0) local_unnamed_addr #0 {
  %2 = icmp slt i32 %0, 2
  br i1 %2, label %12, label %3

3:                                                ; preds = %1
  %4 = add nuw i32 %0, 1
  br label %5

5:                                                ; preds = %3, %9
  %6 = phi i32 [ %10, %9 ], [ 2, %3 ]
  %7 = srem i32 %0, %6
  %8 = icmp eq i32 %7, 0
  br i1 %8, label %12, label %9

9:                                                ; preds = %5
  %10 = add nuw i32 %6, 1
  %11 = icmp eq i32 %6, %0
  br i1 %11, label %12, label %5, !llvm.loop !5

12:                                               ; preds = %9, %5, %1
  %13 = phi i32 [ 2, %1 ], [ %6, %5 ], [ %4, %9 ]
  %14 = icmp sge i32 %13, %0
  %15 = zext i1 %14 to i32
  ret i32 %15
}

; Function Attrs: argmemonly mustprogress nofree nosync nounwind willreturn
declare void @llvm.lifetime.start.p0i8(i64 immarg, i8* nocapture) #1

; Function Attrs: argmemonly mustprogress nofree nosync nounwind willreturn
declare void @llvm.lifetime.end.p0i8(i64 immarg, i8* nocapture) #1

; Function Attrs: nofree nounwind sspstrong uwtable
define dso_local i32 @main() local_unnamed_addr #2 {
  %1 = alloca i32, align 4
  %2 = bitcast i32* %1 to i8*
  call void @llvm.lifetime.start.p0i8(i64 4, i8* nonnull %2) #4
  %3 = call i32 (i8*, ...) @__isoc99_scanf(i8* getelementptr inbounds ([3 x i8], [3 x i8]* @.str, i64 0, i64 0), i32* nonnull %1)
  %4 = load i32, i32* %1, align 4, !tbaa !7
  %5 = icmp slt i32 %4, 6
  br i1 %5, label %43, label %6

6:                                                ; preds = %0
  %7 = add nsw i32 %4, -3
  br label %8

8:                                                ; preds = %6, %39
  %9 = phi i32 [ %41, %39 ], [ 3, %6 ]
  %10 = phi i32 [ %40, %39 ], [ %7, %6 ]
  %11 = add nuw i32 %9, 1
  br label %12

12:                                               ; preds = %44, %8
  %13 = phi i32 [ 2, %8 ], [ %45, %44 ]
  %14 = srem i32 %9, %13
  %15 = icmp eq i32 %14, 0
  br i1 %15, label %20, label %16

16:                                               ; preds = %12
  %17 = or i32 %13, 1
  %18 = srem i32 %9, %17
  %19 = icmp eq i32 %18, 0
  br i1 %19, label %20, label %44

20:                                               ; preds = %44, %16, %12
  %21 = phi i32 [ %13, %12 ], [ %17, %16 ], [ %11, %44 ]
  %22 = icmp sge i32 %21, %9
  %23 = icmp slt i32 %10, 2
  br i1 %23, label %33, label %24

24:                                               ; preds = %20
  %25 = add nuw i32 %10, 1
  br label %26

26:                                               ; preds = %30, %24
  %27 = phi i32 [ %31, %30 ], [ 2, %24 ]
  %28 = srem i32 %10, %27
  %29 = icmp eq i32 %28, 0
  br i1 %29, label %33, label %30

30:                                               ; preds = %26
  %31 = add nuw i32 %27, 1
  %32 = icmp eq i32 %27, %10
  br i1 %32, label %33, label %26, !llvm.loop !5

33:                                               ; preds = %26, %30, %20
  %34 = phi i32 [ 2, %20 ], [ %25, %30 ], [ %27, %26 ]
  %35 = icmp sge i32 %34, %10
  %36 = select i1 %22, i1 %35, i1 false
  br i1 %36, label %37, label %39

37:                                               ; preds = %33
  %38 = call i32 (i8*, ...) @printf(i8* nonnull dereferenceable(1) getelementptr inbounds ([7 x i8], [7 x i8]* @.str.1, i64 0, i64 0), i32 %9, i32 %10)
  br label %39

39:                                               ; preds = %33, %37
  %40 = add nsw i32 %10, -2
  %41 = add nuw nsw i32 %9, 2
  %42 = icmp sgt i32 %41, %40
  br i1 %42, label %43, label %8, !llvm.loop !11

43:                                               ; preds = %39, %0
  call void @llvm.lifetime.end.p0i8(i64 4, i8* nonnull %2) #4
  ret i32 0

44:                                               ; preds = %16
  %45 = add nuw i32 %13, 2
  %46 = icmp eq i32 %17, %9
  br i1 %46, label %20, label %12, !llvm.loop !5
}

; Function Attrs: nofree nounwind
declare noundef i32 @__isoc99_scanf(i8* nocapture noundef readonly, ...) local_unnamed_addr #3

; Function Attrs: nofree nounwind
declare noundef i32 @printf(i8* nocapture noundef readonly, ...) local_unnamed_addr #3


!llvm.module.flags = !{!0, !1, !2, !3}
!llvm.ident = !{!4}

!0 = !{i32 1, !"wchar_size", i32 4}
!1 = !{i32 7, !"PIC Level", i32 2}
!2 = !{i32 7, !"PIE Level", i32 2}
!3 = !{i32 7, !"uwtable", i32 1}
!4 = !{!"clang version 13.0.0"}
!5 = distinct !{!5, !6}
!6 = !{!"llvm.loop.mustprogress"}
!7 = !{!8, !8, i64 0}
!8 = !{!"int", !9, i64 0}
!9 = !{!"omnipotent char", !10, i64 0}
!10 = !{!"Simple C/C++ TBAA"}
!11 = distinct !{!11, !6}
